; Function Attrs: mustprogress uwtable
define void @_ZN7rocksdb25EncryptedRandomAccessFile4HintENS_18FSRandomAccessFile13AccessPatternE(ptr noundef nonnull readonly align 8 captures(none) dereferenceable(32) %0, i32 noundef %1) unnamed_addr #3 align 2 {
  %3 = getelementptr inbounds nuw i8, ptr %0, i64 8
  %4 = load ptr, ptr %3, align 8, !tbaa !103
  %5 = load ptr, ptr %4, align 8, !tbaa !13
  %6 = getelementptr inbounds nuw i8, ptr %5, i64 48
  %7 = load ptr, ptr %6, align 8
  tail call void %7(ptr noundef nonnull align 8 dereferenceable(8) %4, i32 noundef %1)
  ret void
}